target datalayout = "e-m:e-p270:32:32-p271:32:32-p272:64:64-i64:64-i128:128-f80:128-n8:16:32:64-S128"
target triple = "x86_64-pc-linux-gnu"

%struct.strbuf = type { i64, i64, ptr }

; Function Attrs: nounwind uwtable
define internal i64 @write_section(i32 noundef %0, ptr noundef %1, ptr noundef %2) #0 {
  %4 = alloca i32, align 4
  %5 = alloca ptr, align 8
  %6 = alloca ptr, align 8
  %7 = alloca %struct.strbuf, align 8
  %8 = alloca i64, align 8
  store i32 %0, ptr %4, align 4, !tbaa !13
  store ptr %1, ptr %5, align 8, !tbaa !4
  store ptr %2, ptr %6, align 8, !tbaa !177
  call void @llvm.lifetime.start.p0(i64 24, ptr %7) #13
  %9 = load ptr, ptr %5, align 8, !tbaa !4
  %10 = load ptr, ptr %6, align 8, !tbaa !177
  call void @store_create_section(ptr dead_on_unwind writable sret(%struct.strbuf) align 8 %7, ptr noundef %9, ptr noundef %10)
  call void @llvm.lifetime.start.p0(i64 8, ptr %8) #13
  %11 = load i32, ptr %4, align 4, !tbaa !13
  %12 = getelementptr inbounds nuw %struct.strbuf, ptr %7, i32 0, i32 2
  %13 = load ptr, ptr %12, align 8, !tbaa !10
  %14 = getelementptr inbounds nuw %struct.strbuf, ptr %7, i32 0, i32 1
  %15 = load i64, ptr %14, align 8, !tbaa !35
  %16 = call i64 @write_in_full(i32 noundef %11, ptr noundef %13, i64 noundef %15)
  store i64 %16, ptr %8, align 8, !tbaa !19
  call void @strbuf_release(ptr noundef %7)
  %17 = load i64, ptr %8, align 8, !tbaa !19
  call void @llvm.lifetime.end.p0(i64 8, ptr %8) #13
  call void @llvm.lifetime.end.p0(i64 24, ptr %7) #13
  ret i64 %17
}