; Function Attrs: nounwind uwtable
define internal fastcc i64 @write_section(i32 noundef range(i32 0, -2147483648) %0, ptr noundef %1, ptr noundef nonnull readonly captures(none) %2) unnamed_addr #0 {
  %4 = alloca %struct.strbuf, align 8
  call void @llvm.lifetime.start.p0(i64 24, ptr nonnull %4) #30
  call fastcc void @store_create_section(ptr dead_on_unwind noalias writable align 8 %4, ptr noundef %1, ptr noundef %2)
  %5 = getelementptr inbounds nuw i8, ptr %4, i64 16
  %6 = load ptr, ptr %5, align 8, !tbaa !13
  %7 = getelementptr inbounds nuw i8, ptr %4, i64 8
  %8 = load i64, ptr %7, align 8, !tbaa !12
  %9 = call i64 @write_in_full(i32 noundef %0, ptr noundef %6, i64 noundef %8) #30
  call void @strbuf_release(ptr noundef nonnull %4) #30
  call void @llvm.lifetime.end.p0(i64 24, ptr nonnull %4) #30
  ret i64 %9
}